; ModuleID = '15/952.c'
source_filename = "15/952.c"
target datalayout = "e-m:e-p270:32:32-p271:32:32-p272:64:64-i64:64-f80:128-n8:16:32:64-S128"
target triple = "x86_64-pc-linux-gnu"

@.str = private unnamed_addr constant [3 x i8] c"%d\00", align 1

; Function Attrs: noinline nounwind uwtable
define dso_local i32 @main() #0 {
  %1 = alloca i32, align 4
  %2 = alloca [1000 x [1000 x i32]], align 16
  %3 = alloca i32, align 4
  %4 = alloca i32, align 4
  %5 = alloca i32, align 4
  %6 = alloca i32, align 4
  %7 = alloca i32, align 4
  %8 = alloca i32, align 4
  %9 = alloca i32, align 4
  %10 = alloca i32, align 4
  %11 = alloca i32, align 4
  %12 = alloca i32, align 4
  store i32 0, i32* %1, align 4
  store i32 0, i32* %6, align 4
  store i32 1000, i32* %7, align 4
  store i32 0, i32* %8, align 4
  store i32 1000, i32* %9, align 4
  %13 = call i32 (i8*, ...) @__isoc99_scanf(i8* getelementptr inbounds ([3 x i8], [3 x i8]* @.str, i64 0, i64 0), i32* %3)
  store i32 0, i32* %4, align 4
  br label %14

14:                                               ; preds = %35, %0
  %15 = load i32, i32* %4, align 4
  %16 = load i32, i32* %3, align 4
  %17 = icmp slt i32 %15, %16
  br i1 %17, label %18, label %38

18:                                               ; preds = %14
  store i32 0, i32* %5, align 4
  br label %19

19:                                               ; preds = %31, %18
  %20 = load i32, i32* %5, align 4
  %21 = load i32, i32* %3, align 4
  %22 = icmp slt i32 %20, %21
  br i1 %22, label %23, label %34

23:                                               ; preds = %19
  %24 = load i32, i32* %4, align 4
  %25 = sext i32 %24 to i64
  %26 = getelementptr inbounds [1000 x [1000 x i32]], [1000 x [1000 x i32]]* %2, i64 0, i64 %25
  %27 = load i32, i32* %5, align 4
  %28 = sext i32 %27 to i64
  %29 = getelementptr inbounds [1000 x i32], [1000 x i32]* %26, i64 0, i64 %28
  %30 = call i32 (i8*, ...) @__isoc99_scanf(i8* getelementptr inbounds ([3 x i8], [3 x i8]* @.str, i64 0, i64 0), i32* %29)
  br label %31

31:                                               ; preds = %23
  %32 = load i32, i32* %5, align 4
  %33 = add nsw i32 %32, 1
  store i32 %33, i32* %5, align 4
  br label %19

34:                                               ; preds = %19
  br label %35

35:                                               ; preds = %34
  %36 = load i32, i32* %4, align 4
  %37 = add nsw i32 %36, 1
  store i32 %37, i32* %4, align 4
  br label %14

38:                                               ; preds = %14
  store i32 0, i32* %4, align 4
  br label %39

39:                                               ; preds = %87, %38
  %40 = load i32, i32* %4, align 4
  %41 = load i32, i32* %3, align 4
  %42 = icmp slt i32 %40, %41
  br i1 %42, label %43, label %90

43:                                               ; preds = %39
  store i32 0, i32* %5, align 4
  br label %44

44:                                               ; preds = %83, %43
  %45 = load i32, i32* %5, align 4
  %46 = load i32, i32* %3, align 4
  %47 = icmp slt i32 %45, %46
  br i1 %47, label %48, label %86

48:                                               ; preds = %44
  %49 = load i32, i32* %4, align 4
  %50 = sext i32 %49 to i64
  %51 = getelementptr inbounds [1000 x [1000 x i32]], [1000 x [1000 x i32]]* %2, i64 0, i64 %50
  %52 = load i32, i32* %5, align 4
  %53 = sext i32 %52 to i64
  %54 = getelementptr inbounds [1000 x i32], [1000 x i32]* %51, i64 0, i64 %53
  %55 = load i32, i32* %54, align 4
  %56 = icmp eq i32 %55, 0
  br i1 %56, label %57, label %82

57:                                               ; preds = %48
  %58 = load i32, i32* %4, align 4
  %59 = load i32, i32* %6, align 4
  %60 = icmp sgt i32 %58, %59
  br i1 %60, label %61, label %63

61:                                               ; preds = %57
  %62 = load i32, i32* %4, align 4
  store i32 %62, i32* %6, align 4
  br label %63

63:                                               ; preds = %61, %57
  %64 = load i32, i32* %4, align 4
  %65 = load i32, i32* %7, align 4
  %66 = icmp slt i32 %64, %65
  br i1 %66, label %67, label %69

67:                                               ; preds = %63
  %68 = load i32, i32* %4, align 4
  store i32 %68, i32* %7, align 4
  br label %69

69:                                               ; preds = %67, %63
  %70 = load i32, i32* %5, align 4
  %71 = load i32, i32* %8, align 4
  %72 = icmp sgt i32 %70, %71
  br i1 %72, label %73, label %75

73:                                               ; preds = %69
  %74 = load i32, i32* %5, align 4
  store i32 %74, i32* %8, align 4
  br label %75

75:                                               ; preds = %73, %69
  %76 = load i32, i32* %5, align 4
  %77 = load i32, i32* %9, align 4
  %78 = icmp slt i32 %76, %77
  br i1 %78, label %79, label %81

79:                                               ; preds = %75
  %80 = load i32, i32* %5, align 4
  store i32 %80, i32* %9, align 4
  br label %81

81:                                               ; preds = %79, %75
  br label %82

82:                                               ; preds = %81, %48
  br label %83

83:                                               ; preds = %82
  %84 = load i32, i32* %5, align 4
  %85 = add nsw i32 %84, 1
  store i32 %85, i32* %5, align 4
  br label %44

86:                                               ; preds = %44
  br label %87

87:                                               ; preds = %86
  %88 = load i32, i32* %4, align 4
  %89 = add nsw i32 %88, 1
  store i32 %89, i32* %4, align 4
  br label %39

90:                                               ; preds = %39
  %91 = load i32, i32* %6, align 4
  %92 = load i32, i32* %7, align 4
  %93 = sub nsw i32 %91, %92
  %94 = sub nsw i32 %93, 1
  store i32 %94, i32* %10, align 4
  %95 = load i32, i32* %8, align 4
  %96 = load i32, i32* %9, align 4
  %97 = sub nsw i32 %95, %96
  %98 = sub nsw i32 %97, 1
  store i32 %98, i32* %11, align 4
  %99 = load i32, i32* %10, align 4
  %100 = load i32, i32* %11, align 4
  %101 = mul nsw i32 %99, %100
  store i32 %101, i32* %12, align 4
  %102 = load i32, i32* %12, align 4
  %103 = call i32 (i8*, ...) @printf(i8* getelementptr inbounds ([3 x i8], [3 x i8]* @.str, i64 0, i64 0), i32 %102)
  ret i32 0
}

declare dso_local i32 @__isoc99_scanf(i8*, ...) #1

declare dso_local i32 @printf(i8*, ...) #1


!llvm.module.flags = !{!0}
!llvm.ident = !{!1}

!0 = !{i32 1, !"wchar_size", i32 4}
!1 = !{!"clang version 10.0.0-4ubuntu1 "}
